target datalayout = "e-m:e-p270:32:32-p271:32:32-p272:64:64-i64:64-i128:128-f80:128-n8:16:32:64-S128"
target triple = "x86_64-pc-linux-gnu"

%struct.CastContext = type { ptr, ptr, ptr, ptr, ptr, i32, i32 }
%struct.Expr_ = type { ptr, %union.SourceSpan, i16, %union.anon.29 }
%union.SourceSpan = type { i64 }
%union.anon.29 = type { %struct.ExprAnySwitch }
%struct.ExprAnySwitch = type { i8, %union.anon.31 }
%union.anon.31 = type { %struct.anon.32 }
%struct.anon.32 = type { ptr, %union.SourceSpan, ptr }
%struct.Type_ = type { i32, ptr, ptr, ptr, %union.anon.85, ptr, ptr, %union.anon.87 }
%union.anon.85 = type { ptr }
%union.anon.87 = type { %struct.TypeFunction }
%struct.TypeFunction = type { ptr, ptr, ptr }
%struct.Decl_ = type { ptr, ptr, %union.SourceSpan, i64, %union.anon, i32, %union.anon.0, i64, ptr, ptr, ptr, %union.anon.1 }
%union.anon = type { ptr }
%union.anon.0 = type { i16 }
%union.anon.1 = type { %struct.FuncDecl }
%struct.FuncDecl = type { i32, [4 x i8], %struct.Signature_, i32, i32, %union.anon.8 }
%struct.Signature_ = type <{ %struct.CalleeAttributes, i16, i8, i32, i32, [4 x i8], ptr }>
%struct.CalleeAttributes = type { i8 }
%union.anon.8 = type { %struct.anon.9 }
%struct.anon.9 = type { i16, %union.anon.10 }
%union.anon.10 = type { ptr }
%struct.anon.2 = type { ptr, ptr, %union.anon.3 }
%union.anon.3 = type { %struct.BitStructDecl }
%struct.BitStructDecl = type { ptr, ptr, i8 }
%struct.TypeInfo_ = type { i16, ptr, %union.SourceSpan, %union.anon.56 }
%union.anon.56 = type { %struct.anon.57 }
%struct.anon.57 = type { ptr, ptr }
%struct.VHeader_ = type { i32, i32, [0 x i8] }

@.str.24 = private unnamed_addr constant [120 x i8] c"%s cannot be implicitly cast to %s, but you can use an explicit cast to (unsafely) assume the interface is implemented.\00", align 1

; Function Attrs: nounwind uwtable
define internal zeroext i1 @rule_ptr_to_interface(ptr noundef %0, i1 noundef zeroext %1, i1 noundef zeroext %2) #0 {
  %4 = alloca i1, align 1
  %5 = alloca ptr, align 8
  %6 = alloca i32, align 4
  %7 = alloca i32, align 4
  %8 = alloca ptr, align 8
  %9 = alloca ptr, align 8
  %10 = alloca i1, align 1
  %11 = alloca ptr, align 8
  %12 = alloca i8, align 1
  %13 = alloca i8, align 1
  %14 = alloca ptr, align 8
  %15 = alloca ptr, align 8
  %16 = alloca ptr, align 8
  %17 = alloca ptr, align 8
  %18 = alloca i32, align 4
  %19 = alloca i32, align 4
  %20 = alloca ptr, align 8
  store ptr %0, ptr %11, align 8
  %21 = zext i1 %1 to i8
  store i8 %21, ptr %12, align 1
  %22 = zext i1 %2 to i8
  store i8 %22, ptr %13, align 1
  %23 = load i8, ptr %12, align 1
  %24 = trunc i8 %23 to i1
  br i1 %24, label %25, label %26

25:                                               ; preds = %3
  store i1 true, ptr %10, align 1
  br label %124

26:                                               ; preds = %3
  %27 = load ptr, ptr %11, align 8
  %28 = getelementptr inbounds %struct.CastContext, ptr %27, i32 0, i32 2
  %29 = load ptr, ptr %28, align 8
  %30 = getelementptr inbounds %struct.Type_, ptr %29, i32 0, i32 7
  %31 = load ptr, ptr %30, align 8
  store ptr %31, ptr %14, align 8
  %32 = load ptr, ptr %14, align 8
  store ptr %32, ptr %5, align 8
  %33 = load ptr, ptr %5, align 8
  %34 = load i32, ptr %33, align 8
  store i32 %34, ptr %6, align 4
  %35 = load i32, ptr %6, align 4
  %36 = icmp eq i32 %35, 31
  br i1 %36, label %37, label %42

37:                                               ; preds = %26
  %38 = load ptr, ptr %5, align 8
  %39 = getelementptr inbounds %struct.Type_, ptr %38, i32 0, i32 1
  %40 = load ptr, ptr %39, align 8
  %41 = load i32, ptr %40, align 8
  store i32 %41, ptr %6, align 4
  br label %42

42:                                               ; preds = %37, %26
  %43 = load i32, ptr %6, align 4
  switch i32 %43, label %45 [
    i32 26, label %44
    i32 27, label %44
    i32 24, label %44
    i32 32, label %44
    i32 30, label %44
    i32 29, label %44
  ]

44:                                               ; preds = %42, %42, %42, %42, %42, %42
  store i1 true, ptr %4, align 1
  br label %46

45:                                               ; preds = %42
  store i1 false, ptr %4, align 1
  br label %46

46:                                               ; preds = %45, %44
  %47 = load i1, ptr %4, align 1
  br i1 %47, label %48, label %102

48:                                               ; preds = %46
  %49 = load ptr, ptr %11, align 8
  %50 = getelementptr inbounds %struct.CastContext, ptr %49, i32 0, i32 4
  %51 = load ptr, ptr %50, align 8
  %52 = getelementptr inbounds %struct.Type_, ptr %51, i32 0, i32 7
  %53 = load ptr, ptr %52, align 8
  store ptr %53, ptr %15, align 8
  %54 = load ptr, ptr %14, align 8
  %55 = getelementptr inbounds %struct.Type_, ptr %54, i32 0, i32 7
  %56 = load ptr, ptr %55, align 8
  store ptr %56, ptr %16, align 8
  %57 = load ptr, ptr %16, align 8
  %58 = getelementptr inbounds %struct.Decl_, ptr %57, i32 0, i32 11
  %59 = getelementptr inbounds %struct.anon.2, ptr %58, i32 0, i32 0
  %60 = load ptr, ptr %59, align 8
  store ptr %60, ptr %17, align 8
  %61 = load ptr, ptr %17, align 8
  store ptr %61, ptr %8, align 8
  %62 = load ptr, ptr %8, align 8
  %63 = icmp ne ptr %62, null
  br i1 %63, label %65, label %64

64:                                               ; preds = %48
  store i32 0, ptr %7, align 4
  br label %70

65:                                               ; preds = %48
  %66 = load ptr, ptr %8, align 8
  store ptr %66, ptr %9, align 8
  %67 = load ptr, ptr %9, align 8
  %68 = getelementptr inbounds %struct.VHeader_, ptr %67, i64 -1
  %69 = load i32, ptr %68, align 4
  store i32 %69, ptr %7, align 4
  br label %70

70:                                               ; preds = %65, %64
  %71 = load i32, ptr %7, align 4
  store i32 %71, ptr %18, align 4
  store i32 0, ptr %19, align 4
  br label %72

72:                                               ; preds = %96, %70
  %73 = load i32, ptr %19, align 4
  %74 = load i32, ptr %18, align 4
  %75 = icmp ult i32 %73, %74
  br i1 %75, label %76, label %99

76:                                               ; preds = %72
  %77 = load ptr, ptr %17, align 8
  %78 = load i32, ptr %19, align 4
  %79 = zext i32 %78 to i64
  %80 = getelementptr inbounds ptr, ptr %77, i64 %79
  %81 = load ptr, ptr %80, align 8
  store ptr %81, ptr %20, align 8
  %82 = load ptr, ptr %11, align 8
  %83 = getelementptr inbounds %struct.CastContext, ptr %82, i32 0, i32 0
  %84 = load ptr, ptr %83, align 8
  %85 = load ptr, ptr %20, align 8
  %86 = call zeroext i1 @sema_resolve_type_info(ptr noundef %84, ptr noundef %85, i32 noundef 2)
  br i1 %86, label %88, label %87

87:                                               ; preds = %76
  store i1 false, ptr %10, align 1
  br label %124

88:                                               ; preds = %76
  %89 = load ptr, ptr %20, align 8
  %90 = getelementptr inbounds %struct.TypeInfo_, ptr %89, i32 0, i32 1
  %91 = load ptr, ptr %90, align 8
  %92 = load ptr, ptr %15, align 8
  %93 = icmp eq ptr %91, %92
  br i1 %93, label %94, label %95

94:                                               ; preds = %88
  store i1 true, ptr %10, align 1
  br label %124

95:                                               ; preds = %88
  br label %96

96:                                               ; preds = %95
  %97 = load i32, ptr %19, align 4
  %98 = add i32 %97, 1
  store i32 %98, ptr %19, align 4
  br label %72, !llvm.loop !7

99:                                               ; preds = %72
  br label %100

100:                                              ; preds = %99
  br label %101

101:                                              ; preds = %100
  br label %102

102:                                              ; preds = %101, %46
  %103 = load i8, ptr %13, align 1
  %104 = trunc i8 %103 to i1
  br i1 %104, label %105, label %106

105:                                              ; preds = %102
  store i1 false, ptr %10, align 1
  br label %124

106:                                              ; preds = %102
  br label %107

107:                                              ; preds = %106
  %108 = load ptr, ptr %11, align 8
  %109 = getelementptr inbounds %struct.CastContext, ptr %108, i32 0, i32 1
  %110 = load ptr, ptr %109, align 8
  %111 = getelementptr inbounds %struct.Expr_, ptr %110, i32 0, i32 1
  %112 = load ptr, ptr %11, align 8
  %113 = getelementptr inbounds %struct.CastContext, ptr %112, i32 0, i32 1
  %114 = load ptr, ptr %113, align 8
  %115 = getelementptr inbounds %struct.Expr_, ptr %114, i32 0, i32 0
  %116 = load ptr, ptr %115, align 8
  %117 = call ptr @type_quoted_error_string(ptr noundef %116)
  %118 = load ptr, ptr %11, align 8
  %119 = getelementptr inbounds %struct.CastContext, ptr %118, i32 0, i32 3
  %120 = load ptr, ptr %119, align 8
  %121 = call ptr @type_quoted_error_string(ptr noundef %120)
  %122 = getelementptr inbounds %union.SourceSpan, ptr %111, i32 0, i32 0
  %123 = load i64, ptr %122, align 8
  call void (i64, ptr, ...) @sema_error_at(i64 %123, ptr noundef @.str.24, ptr noundef %117, ptr noundef %121)
  store i1 false, ptr %10, align 1
  br label %124

124:                                              ; preds = %107, %105, %94, %87, %25
  %125 = load i1, ptr %10, align 1
  ret i1 %125
}