; Function Attrs: nounwind uwtable
define internal noundef zeroext i1 @rule_ptr_to_interface(ptr nocapture noundef readonly %0, i1 noundef zeroext %1, i1 noundef zeroext %2) #0 {
  br i1 %1, label %.loopexit, label %4

4:                                                ; preds = %3
  %5 = getelementptr inbounds i8, ptr %0, i64 16
  %6 = load ptr, ptr %5, align 8
  %7 = getelementptr inbounds i8, ptr %6, i64 56
  %8 = load ptr, ptr %7, align 8
  %9 = load i32, ptr %8, align 8
  %10 = icmp eq i32 %9, 31
  br i1 %10, label %11, label %15

11:                                               ; preds = %4
  %12 = getelementptr inbounds i8, ptr %8, i64 8
  %13 = load ptr, ptr %12, align 8
  %14 = load i32, ptr %13, align 8
  br label %15

15:                                               ; preds = %11, %4
  %.030 = phi i32 [ %14, %11 ], [ %9, %4 ]
  switch i32 %.030, label %.critedge [
    i32 26, label %16
    i32 27, label %16
    i32 24, label %16
    i32 32, label %16
    i32 30, label %16
    i32 29, label %16
  ]

16:                                               ; preds = %15, %15, %15, %15, %15, %15
  %17 = getelementptr inbounds i8, ptr %0, i64 32
  %18 = load ptr, ptr %17, align 8
  %19 = getelementptr inbounds i8, ptr %18, i64 56
  %20 = load ptr, ptr %19, align 8
  %21 = getelementptr inbounds i8, ptr %8, i64 56
  %22 = load ptr, ptr %21, align 8
  %23 = getelementptr inbounds i8, ptr %22, i64 80
  %24 = load ptr, ptr %23, align 8
  %.not = icmp eq ptr %24, null
  br i1 %.not, label %.critedge, label %25

25:                                               ; preds = %16
  %26 = getelementptr inbounds i8, ptr %24, i64 -8
  %27 = load i32, ptr %26, align 4
  %.not36 = icmp eq i32 %27, 0
  br i1 %.not36, label %.critedge, label %.lr.ph.preheader

.lr.ph.preheader:                                 ; preds = %25
  %wide.trip.count = zext i32 %27 to i64
  br label %.lr.ph

28:                                               ; preds = %33
  %indvars.iv.next = add nuw nsw i64 %indvars.iv, 1
  %exitcond.not = icmp eq i64 %indvars.iv.next, %wide.trip.count
  br i1 %exitcond.not, label %.critedge, label %.lr.ph, !llvm.loop !7

.lr.ph:                                           ; preds = %.lr.ph.preheader, %28
  %indvars.iv = phi i64 [ 0, %.lr.ph.preheader ], [ %indvars.iv.next, %28 ]
  %29 = getelementptr inbounds ptr, ptr %24, i64 %indvars.iv
  %30 = load ptr, ptr %29, align 8
  %31 = load ptr, ptr %0, align 8
  %32 = tail call zeroext i1 @sema_resolve_type_info(ptr noundef %31, ptr noundef %30, i32 noundef 2) #10
  br i1 %32, label %33, label %.loopexit

33:                                               ; preds = %.lr.ph
  %34 = getelementptr inbounds i8, ptr %30, i64 8
  %35 = load ptr, ptr %34, align 8
  %36 = icmp eq ptr %35, %20
  br i1 %36, label %.loopexit, label %28

.critedge:                                        ; preds = %28, %16, %25, %15
  br i1 %2, label %.loopexit, label %37

37:                                               ; preds = %.critedge
  %38 = getelementptr inbounds i8, ptr %0, i64 8
  %39 = load ptr, ptr %38, align 8
  %40 = getelementptr inbounds i8, ptr %39, i64 8
  %41 = load ptr, ptr %39, align 8
  %42 = tail call ptr @type_quoted_error_string(ptr noundef %41) #10
  %43 = getelementptr inbounds i8, ptr %0, i64 24
  %44 = load ptr, ptr %43, align 8
  %45 = tail call ptr @type_quoted_error_string(ptr noundef %44) #10
  %46 = load i64, ptr %40, align 8
  tail call void (i64, ptr, ...) @sema_error_at(i64 %46, ptr noundef nonnull @.str.24, ptr noundef %42, ptr noundef %45) #10
  br label %.loopexit

.loopexit:                                        ; preds = %33, %.lr.ph, %.critedge, %3, %37
  %.032 = phi i1 [ false, %37 ], [ true, %3 ], [ false, %.critedge ], [ %32, %.lr.ph ], [ %32, %33 ]
  ret i1 %.032
}